target datalayout = "e-m:e-p270:32:32-p271:32:32-p272:64:64-i64:64-i128:128-f80:128-n8:16:32:64-S128"
target triple = "x86_64-unknown-linux-gnu"

%"class.cvc5::internal::AverageStat" = type { ptr }
%"struct.cvc5::internal::StatisticAverageValue" = type { %"struct.cvc5::internal::StatisticBaseValue.base", double, i64 }
%"struct.cvc5::internal::StatisticBaseValue.base" = type <{ ptr, i8 }>

; Function Attrs: mustprogress nounwind uwtable
define hidden noundef nonnull align 8 dereferenceable(8) ptr @_ZN4cvc58internal11AverageStatlsEd(ptr noundef nonnull align 8 dereferenceable(8) %this, double noundef %v) #0 align 2 {
entry:
  %this.addr = alloca ptr, align 8
  %v.addr = alloca double, align 8
  store ptr %this, ptr %this.addr, align 8
  store double %v, ptr %v.addr, align 8
  %this1 = load ptr, ptr %this.addr, align 8
  %0 = load double, ptr %v.addr, align 8
  %d_data = getelementptr inbounds %"class.cvc5::internal::AverageStat", ptr %this1, i32 0, i32 0
  %1 = load ptr, ptr %d_data, align 8
  %d_sum = getelementptr inbounds %"struct.cvc5::internal::StatisticAverageValue", ptr %1, i32 0, i32 1
  %2 = load double, ptr %d_sum, align 8
  %add = fadd double %2, %0
  store double %add, ptr %d_sum, align 8
  %d_data2 = getelementptr inbounds %"class.cvc5::internal::AverageStat", ptr %this1, i32 0, i32 0
  %3 = load ptr, ptr %d_data2, align 8
  %d_count = getelementptr inbounds %"struct.cvc5::internal::StatisticAverageValue", ptr %3, i32 0, i32 2
  %4 = load i64, ptr %d_count, align 8
  %inc = add i64 %4, 1
  store i64 %inc, ptr %d_count, align 8
  ret ptr %this1
}