; Function Attrs: mustprogress nofree norecurse nosync nounwind willreturn memory(readwrite, inaccessiblemem: none) uwtable
define hidden noundef nonnull align 8 dereferenceable(8) ptr @_ZN4cvc58internal11AverageStatlsEd(ptr noundef nonnull readonly returned align 8 dereferenceable(8) %this, double noundef %v) local_unnamed_addr #0 align 2 {
entry:
  %0 = load ptr, ptr %this, align 8
  %d_sum = getelementptr inbounds nuw i8, ptr %0, i64 16
  %1 = load double, ptr %d_sum, align 8
  %add = fadd double %v, %1
  store double %add, ptr %d_sum, align 8
  %2 = load ptr, ptr %this, align 8
  %d_count = getelementptr inbounds nuw i8, ptr %2, i64 24
  %3 = load i64, ptr %d_count, align 8
  %inc = add i64 %3, 1
  store i64 %inc, ptr %d_count, align 8
  ret ptr %this
}